; Function Attrs: mustprogress nofree norecurse nosync nounwind willreturn memory(argmem: readwrite) uwtable
define void @_ZN8QuantLib13JointCalendar4ImplC2ESt6vectorINS_8CalendarESaIS3_EENS_17JointCalendarRuleE(ptr noundef nonnull align 8 dereferenceable(136) %this, ptr nocapture noundef %cv, i32 noundef %r) unnamed_addr #2 align 2 personality ptr @__gxx_personality_v0 {
entry:
  %0 = getelementptr inbounds i8, ptr %this, i64 16
  store i32 0, ptr %0, align 8, !tbaa !3
  %_M_parent.i.i.i.i.i.i = getelementptr inbounds i8, ptr %this, i64 24
  store ptr null, ptr %_M_parent.i.i.i.i.i.i, align 8, !tbaa !11
  %_M_left.i.i.i.i.i.i = getelementptr inbounds i8, ptr %this, i64 32
  store ptr %0, ptr %_M_left.i.i.i.i.i.i, align 8, !tbaa !12
  %_M_right.i.i.i.i.i.i = getelementptr inbounds i8, ptr %this, i64 40
  store ptr %0, ptr %_M_right.i.i.i.i.i.i, align 8, !tbaa !13
  %_M_node_count.i.i.i.i.i.i = getelementptr inbounds i8, ptr %this, i64 48
  store i64 0, ptr %_M_node_count.i.i.i.i.i.i, align 8, !tbaa !14
  %1 = getelementptr inbounds i8, ptr %this, i64 64
  store i32 0, ptr %1, align 8, !tbaa !3
  %_M_parent.i.i.i.i.i1.i = getelementptr inbounds i8, ptr %this, i64 72
  store ptr null, ptr %_M_parent.i.i.i.i.i1.i, align 8, !tbaa !11
  %_M_left.i.i.i.i.i2.i = getelementptr inbounds i8, ptr %this, i64 80
  store ptr %1, ptr %_M_left.i.i.i.i.i2.i, align 8, !tbaa !12
  %_M_right.i.i.i.i.i3.i = getelementptr inbounds i8, ptr %this, i64 88
  store ptr %1, ptr %_M_right.i.i.i.i.i3.i, align 8, !tbaa !13
  %_M_node_count.i.i.i.i.i4.i = getelementptr inbounds i8, ptr %this, i64 96
  store i64 0, ptr %_M_node_count.i.i.i.i.i4.i, align 8, !tbaa !14
  store ptr getelementptr inbounds inrange(-16, 40) (i8, ptr @_ZTVN8QuantLib13JointCalendar4ImplE, i64 16), ptr %this, align 8, !tbaa !15
  %rule_ = getelementptr inbounds nuw i8, ptr %this, i64 104
  store i32 %r, ptr %rule_, align 8, !tbaa !17
  %calendars_ = getelementptr inbounds nuw i8, ptr %this, i64 112
  %2 = load ptr, ptr %cv, align 8, !tbaa !30
  store ptr %2, ptr %calendars_, align 8, !tbaa !30
  %_M_finish.i.i.i.i = getelementptr inbounds nuw i8, ptr %this, i64 120
  %_M_finish3.i.i.i.i = getelementptr inbounds nuw i8, ptr %cv, i64 8
  %3 = load ptr, ptr %_M_finish3.i.i.i.i, align 8, !tbaa !31
  store ptr %3, ptr %_M_finish.i.i.i.i, align 8, !tbaa !31
  %_M_end_of_storage.i.i.i.i = getelementptr inbounds nuw i8, ptr %this, i64 128
  %_M_end_of_storage4.i.i.i.i = getelementptr inbounds nuw i8, ptr %cv, i64 16
  %4 = load ptr, ptr %_M_end_of_storage4.i.i.i.i, align 8, !tbaa !37
  store ptr %4, ptr %_M_end_of_storage.i.i.i.i, align 8, !tbaa !37
  tail call void @llvm.memset.p0.i64(ptr noundef nonnull align 8 dereferenceable(24) %cv, i8 0, i64 24, i1 false)
  ret void
}